target datalayout = "e-m:e-p270:32:32-p271:32:32-p272:64:64-i64:64-i128:128-f80:128-n8:16:32:64-S128"
target triple = "x86_64-pc-linux-gnu"

%struct.AVRational = type { i32, i32 }
%struct.AVChannelLayout = type { i32, i32, %union.anon.0, ptr }
%union.anon.0 = type { i64 }
%struct.IpvideoContext = type { ptr, %struct.HpelDSPContext, ptr, ptr, ptr, ptr, ptr, i32, ptr, i32, i32, %struct.GetByteContext, %struct.GetByteContext, ptr, i32, i32, i32, [256 x i32] }
%struct.HpelDSPContext = type { [4 x [4 x ptr]], [4 x [4 x ptr]], [4 x [4 x ptr]], [4 x ptr] }
%struct.GetByteContext = type { ptr, ptr, ptr }
%struct.AVFrame = type { [8 x ptr], [8 x i32], ptr, i32, i32, i32, i32, i32, %struct.AVRational, i64, i64, %struct.AVRational, i32, ptr, i32, i32, [8 x ptr], ptr, i32, ptr, i32, i32, i32, i32, i32, i32, i32, i64, ptr, i32, ptr, ptr, i64, i64, i64, i64, ptr, %struct.AVChannelLayout, i64 }

; Function Attrs: nounwind uwtable
define internal void @ipvideo_format_10_secondpass(ptr noundef %0, ptr noundef %1, i16 noundef signext %2) #1 {
  %4 = alloca ptr, align 8
  %5 = alloca ptr, align 8
  %6 = alloca i16, align 2
  %7 = alloca i32, align 4
  %8 = alloca i32, align 4
  store ptr %0, ptr %4, align 8, !tbaa !29
  store ptr %1, ptr %5, align 8, !tbaa !53
  store i16 %2, ptr %6, align 2, !tbaa !75
  call void @llvm.lifetime.start.p0(i64 4, ptr %7) #11
  call void @llvm.lifetime.start.p0(i64 4, ptr %8) #11
  %9 = load i16, ptr %6, align 2, !tbaa !75
  %10 = sext i16 %9 to i32
  %11 = icmp slt i32 %10, 0
  br i1 %11, label %12, label %41

12:                                               ; preds = %3
  %13 = load i16, ptr %6, align 2, !tbaa !75
  %14 = zext i16 %13 to i32
  %15 = sub nsw i32 %14, 49152
  %16 = load ptr, ptr %4, align 8, !tbaa !29
  %17 = getelementptr inbounds nuw %struct.IpvideoContext, ptr %16, i32 0, i32 4
  %18 = load ptr, ptr %17, align 8, !tbaa !42
  %19 = getelementptr inbounds nuw %struct.AVFrame, ptr %18, i32 0, i32 3
  %20 = load i32, ptr %19, align 8, !tbaa !45
  %21 = srem i32 %15, %20
  store i32 %21, ptr %7, align 4, !tbaa !61
  %22 = load i16, ptr %6, align 2, !tbaa !75
  %23 = zext i16 %22 to i32
  %24 = sub nsw i32 %23, 49152
  %25 = load ptr, ptr %4, align 8, !tbaa !29
  %26 = getelementptr inbounds nuw %struct.IpvideoContext, ptr %25, i32 0, i32 4
  %27 = load ptr, ptr %26, align 8, !tbaa !42
  %28 = getelementptr inbounds nuw %struct.AVFrame, ptr %27, i32 0, i32 3
  %29 = load i32, ptr %28, align 8, !tbaa !45
  %30 = sdiv i32 %24, %29
  store i32 %30, ptr %8, align 4, !tbaa !61
  %31 = load ptr, ptr %4, align 8, !tbaa !29
  %32 = load ptr, ptr %4, align 8, !tbaa !29
  %33 = getelementptr inbounds nuw %struct.IpvideoContext, ptr %32, i32 0, i32 5
  %34 = load ptr, ptr %33, align 8, !tbaa !43
  %35 = load ptr, ptr %4, align 8, !tbaa !29
  %36 = getelementptr inbounds nuw %struct.IpvideoContext, ptr %35, i32 0, i32 4
  %37 = load ptr, ptr %36, align 8, !tbaa !42
  %38 = load i32, ptr %7, align 4, !tbaa !61
  %39 = load i32, ptr %8, align 4, !tbaa !61
  %40 = call i32 @copy_from(ptr noundef %31, ptr noundef %34, ptr noundef %37, i32 noundef %38, i32 noundef %39)
  br label %75

41:                                               ; preds = %3
  %42 = load i16, ptr %6, align 2, !tbaa !75
  %43 = sext i16 %42 to i32
  %44 = icmp sgt i32 %43, 0
  br i1 %44, label %45, label %74

45:                                               ; preds = %41
  %46 = load i16, ptr %6, align 2, !tbaa !75
  %47 = zext i16 %46 to i32
  %48 = sub nsw i32 %47, 16384
  %49 = load ptr, ptr %4, align 8, !tbaa !29
  %50 = getelementptr inbounds nuw %struct.IpvideoContext, ptr %49, i32 0, i32 4
  %51 = load ptr, ptr %50, align 8, !tbaa !42
  %52 = getelementptr inbounds nuw %struct.AVFrame, ptr %51, i32 0, i32 3
  %53 = load i32, ptr %52, align 8, !tbaa !45
  %54 = srem i32 %48, %53
  store i32 %54, ptr %7, align 4, !tbaa !61
  %55 = load i16, ptr %6, align 2, !tbaa !75
  %56 = zext i16 %55 to i32
  %57 = sub nsw i32 %56, 16384
  %58 = load ptr, ptr %4, align 8, !tbaa !29
  %59 = getelementptr inbounds nuw %struct.IpvideoContext, ptr %58, i32 0, i32 4
  %60 = load ptr, ptr %59, align 8, !tbaa !42
  %61 = getelementptr inbounds nuw %struct.AVFrame, ptr %60, i32 0, i32 3
  %62 = load i32, ptr %61, align 8, !tbaa !45
  %63 = sdiv i32 %57, %62
  store i32 %63, ptr %8, align 4, !tbaa !61
  %64 = load ptr, ptr %4, align 8, !tbaa !29
  %65 = load ptr, ptr %4, align 8, !tbaa !29
  %66 = getelementptr inbounds nuw %struct.IpvideoContext, ptr %65, i32 0, i32 4
  %67 = load ptr, ptr %66, align 8, !tbaa !42
  %68 = load ptr, ptr %4, align 8, !tbaa !29
  %69 = getelementptr inbounds nuw %struct.IpvideoContext, ptr %68, i32 0, i32 4
  %70 = load ptr, ptr %69, align 8, !tbaa !42
  %71 = load i32, ptr %7, align 4, !tbaa !61
  %72 = load i32, ptr %8, align 4, !tbaa !61
  %73 = call i32 @copy_from(ptr noundef %64, ptr noundef %67, ptr noundef %70, i32 noundef %71, i32 noundef %72)
  br label %74

74:                                               ; preds = %45, %41
  br label %75

75:                                               ; preds = %74, %12
  call void @llvm.lifetime.end.p0(i64 4, ptr %8) #11
  call void @llvm.lifetime.end.p0(i64 4, ptr %7) #11
  ret void
}