; Function Attrs: nounwind uwtable
define internal void @ipvideo_format_10_secondpass(ptr noundef readonly captures(none) %0, ptr readnone captures(none) %1, i16 noundef signext %2) #1 {
  %4 = icmp slt i16 %2, 0
  br i1 %4, label %5, label %17

5:                                                ; preds = %3
  %6 = zext i16 %2 to i32
  %7 = add nsw i32 %6, -49152
  %8 = getelementptr inbounds nuw i8, ptr %0, i64 440
  %9 = load ptr, ptr %8, align 8, !tbaa !39
  %10 = getelementptr inbounds nuw i8, ptr %9, i64 104
  %11 = load i32, ptr %10, align 8, !tbaa !42
  %12 = srem i32 %7, %11
  %13 = sdiv i32 %7, %11
  %14 = getelementptr inbounds nuw i8, ptr %0, i64 448
  %15 = load ptr, ptr %14, align 8, !tbaa !40
  %16 = tail call fastcc i32 @copy_from(ptr noundef %0, ptr noundef %15, ptr noundef %9, i32 noundef %12, i32 noundef %13)
  br label %28

17:                                               ; preds = %3
  %.not = icmp eq i16 %2, 0
  br i1 %.not, label %28, label %18

18:                                               ; preds = %17
  %19 = zext nneg i16 %2 to i32
  %20 = add nsw i32 %19, -16384
  %21 = getelementptr inbounds nuw i8, ptr %0, i64 440
  %22 = load ptr, ptr %21, align 8, !tbaa !39
  %23 = getelementptr inbounds nuw i8, ptr %22, i64 104
  %24 = load i32, ptr %23, align 8, !tbaa !42
  %25 = srem i32 %20, %24
  %26 = sdiv i32 %20, %24
  %27 = tail call fastcc i32 @copy_from(ptr noundef %0, ptr noundef %22, ptr noundef %22, i32 noundef %25, i32 noundef %26)
  br label %28

28:                                               ; preds = %17, %18, %5
  ret void
}